target datalayout = "e-m:e-p270:32:32-p271:32:32-p272:64:64-i64:64-i128:128-f80:128-n8:16:32:64-S128"
target triple = "x86_64-pc-linux-gnu"

%struct.prov_rc2_ctx_st = type { %struct.prov_cipher_ctx_st, %union.anon.0, i64 }
%struct.prov_cipher_ctx_st = type { [16 x i8], [16 x i8], [16 x i8], ptr, %union.anon, i32, i64, i64, i64, i64, i32, i8, i32, ptr, i32, i64, i32, i64, i32, ptr, ptr, ptr }
%union.anon = type { ptr }
%union.anon.0 = type { double, [248 x i8] }

@.str = private unnamed_addr constant [58 x i8] c"../openssl/providers/implementations/ciphers/cipher_rc2.c\00", align 1

; Function Attrs: nounwind uwtable
define internal ptr @rc2_128_cbc_newctx(ptr noundef %0) #0 {
  %2 = alloca ptr, align 8
  %3 = alloca ptr, align 8
  %4 = alloca ptr, align 8
  %5 = alloca i32, align 4
  store ptr %0, ptr %3, align 8, !tbaa !3
  call void @llvm.lifetime.start.p0(i64 8, ptr %4) #5
  %6 = call i32 @ossl_prov_is_running()
  %7 = icmp ne i32 %6, 0
  br i1 %7, label %9, label %8

8:                                                ; preds = %1
  store ptr null, ptr %2, align 8
  store i32 1, ptr %5, align 4
  br label %20

9:                                                ; preds = %1
  %10 = call noalias ptr @CRYPTO_zalloc(i64 noundef 456, ptr noundef @.str, i32 noundef 286)
  store ptr %10, ptr %4, align 8, !tbaa !7
  %11 = load ptr, ptr %4, align 8, !tbaa !7
  %12 = icmp ne ptr %11, null
  br i1 %12, label %13, label %18

13:                                               ; preds = %9
  %14 = load ptr, ptr %4, align 8, !tbaa !7
  %15 = call ptr @ossl_prov_cipher_hw_rc2_cbc(i64 noundef 128)
  call void @ossl_cipher_generic_initkey(ptr noundef %14, i64 noundef 128, i64 noundef 64, i64 noundef 64, i32 noundef 2, i64 noundef 256, ptr noundef %15, ptr noundef null)
  %16 = load ptr, ptr %4, align 8, !tbaa !7
  %17 = getelementptr inbounds nuw %struct.prov_rc2_ctx_st, ptr %16, i32 0, i32 2
  store i64 128, ptr %17, align 8, !tbaa !9
  br label %18

18:                                               ; preds = %13, %9
  %19 = load ptr, ptr %4, align 8, !tbaa !7
  store ptr %19, ptr %2, align 8
  store i32 1, ptr %5, align 4
  br label %20

20:                                               ; preds = %18, %8
  call void @llvm.lifetime.end.p0(i64 8, ptr %4) #5
  %21 = load ptr, ptr %2, align 8
  ret ptr %21
}